target datalayout = "e-m:e-p270:32:32-p271:32:32-p272:64:64-i64:64-i128:128-f80:128-n8:16:32:64-S128"
target triple = "x86_64-pc-linux-gnu"

%struct.mbedtls_mpi = type { ptr, i16, i16 }
%union.mbedtls_ssl_user_data_t = type { i64 }
%struct.mbedtls_ssl_context = type { ptr, i32, i32, i32, i32, i32, ptr, ptr, ptr, ptr, ptr, ptr, ptr, ptr, ptr, ptr, ptr, ptr, ptr, ptr, ptr, ptr, ptr, ptr, ptr, ptr, ptr, ptr, ptr, ptr, ptr, ptr, ptr, i32, i64, i64, i16, i64, i64, i64, i64, i32, i32, i8, i8, i32, i8, ptr, ptr, ptr, ptr, ptr, ptr, ptr, i32, i64, i64, [8 x i8], i16, ptr, ptr, ptr, i64, i32, i64, [12 x i8], [12 x i8], [32 x i8], i8, i8, ptr, ptr, %union.mbedtls_ssl_user_data_t }
%struct.mbedtls_md_context_t = type { ptr, ptr, ptr }
%struct.mbedtls_ssl_handshake_params = type { i8, i8, i8, i8, i8, i32, i8, i8, i8, i8, ptr, ptr, ptr, ptr, ptr, i8, i8, i8, i8, i16, i16, [20 x i16], ptr, ptr, %struct.mbedtls_dhm_context, %struct.mbedtls_ecdh_context, i16, i64, i32, i8, [1024 x i8], i64, ptr, ptr, i64, i16, ptr, ptr, ptr, ptr, %struct.anon, ptr, i16, i8, i32, i32, i32, ptr, ptr, ptr, i32, ptr, [8 x i8], i8, [32 x i8], i8, i16, %struct.mbedtls_md_context_t, %struct.mbedtls_md_context_t, i16, i8, %union.anon.1, [64 x i8], [1076 x i8], i64, i32, i32, i8, ptr, ptr, %union.anon.4, %struct.mbedtls_ssl_tls13_handshake_secrets, ptr, i64, ptr }
%struct.mbedtls_dhm_context = type { %struct.mbedtls_mpi, %struct.mbedtls_mpi, %struct.mbedtls_mpi, %struct.mbedtls_mpi, %struct.mbedtls_mpi, %struct.mbedtls_mpi, %struct.mbedtls_mpi, %struct.mbedtls_mpi, %struct.mbedtls_mpi, %struct.mbedtls_mpi }
%struct.mbedtls_ecdh_context = type { i8, i32, i32, %union.anon }
%union.anon = type { %struct.mbedtls_ecdh_context_mbed }
%struct.mbedtls_ecdh_context_mbed = type { %struct.mbedtls_ecp_group, %struct.mbedtls_mpi, %struct.mbedtls_ecp_point, %struct.mbedtls_ecp_point, %struct.mbedtls_mpi }
%struct.mbedtls_ecp_group = type { i32, %struct.mbedtls_mpi, %struct.mbedtls_mpi, %struct.mbedtls_mpi, %struct.mbedtls_ecp_point, %struct.mbedtls_mpi, i64, i64, i32, ptr, ptr, ptr, ptr, ptr, i64 }
%struct.mbedtls_ecp_point = type { %struct.mbedtls_mpi, %struct.mbedtls_mpi, %struct.mbedtls_mpi }
%struct.anon = type { i64, i8, [4 x %struct.mbedtls_ssl_hs_buffer], %struct.anon.0 }
%struct.mbedtls_ssl_hs_buffer = type { i8, ptr, i64 }
%struct.anon.0 = type { ptr, i64, i32 }
%union.anon.1 = type { %struct.anon.2 }
%struct.anon.2 = type { i8, [64 x i8], i64 }
%union.anon.4 = type { [64 x i8] }
%struct.mbedtls_ssl_tls13_handshake_secrets = type { [64 x i8], [64 x i8] }

@.str = private unnamed_addr constant [121 x i8] c"generated/home/dtcxzyw/WorkSpace/Projects/compilers/llvm-opt-benchmark/bench/lief/bench_build/mbed_src/library/ssl_tls.c\00", align 1
@.str.88 = private unnamed_addr constant [18 x i8] c"mbedtls_md_finish\00", align 1

; Function Attrs: nounwind uwtable
define internal i32 @ssl_get_handshake_transcript_sha256(ptr noundef %0, ptr noundef %1, i64 noundef %2, ptr noundef %3) #0 {
  %5 = alloca i32, align 4
  %6 = alloca ptr, align 8
  %7 = alloca ptr, align 8
  %8 = alloca i64, align 8
  %9 = alloca ptr, align 8
  %10 = alloca i32, align 4
  %11 = alloca %struct.mbedtls_md_context_t, align 8
  %12 = alloca i32, align 4
  store ptr %0, ptr %6, align 8, !tbaa !27
  store ptr %1, ptr %7, align 8, !tbaa !29
  store i64 %2, ptr %8, align 8, !tbaa !8
  store ptr %3, ptr %9, align 8, !tbaa !39
  call void @llvm.lifetime.start.p0(i64 4, ptr %10) #11
  call void @llvm.lifetime.start.p0(i64 24, ptr %11) #11
  %13 = load i64, ptr %8, align 8, !tbaa !8
  %14 = icmp ult i64 %13, 32
  br i1 %14, label %15, label %16

15:                                               ; preds = %4
  store i32 -27648, ptr %5, align 4
  store i32 1, ptr %12, align 4
  br label %42

16:                                               ; preds = %4
  call void @mbedtls_md_init(ptr noundef %11)
  %17 = call ptr @mbedtls_md_info_from_type(i32 noundef 9)
  %18 = call i32 @mbedtls_md_setup(ptr noundef %11, ptr noundef %17, i32 noundef 0)
  store i32 %18, ptr %10, align 4, !tbaa !10
  %19 = load i32, ptr %10, align 4, !tbaa !10
  %20 = icmp ne i32 %19, 0
  br i1 %20, label %21, label %22

21:                                               ; preds = %16
  br label %40

22:                                               ; preds = %16
  %23 = load ptr, ptr %6, align 8, !tbaa !27
  %24 = getelementptr inbounds nuw %struct.mbedtls_ssl_context, ptr %23, i32 0, i32 16
  %25 = load ptr, ptr %24, align 8, !tbaa !78
  %26 = getelementptr inbounds nuw %struct.mbedtls_ssl_handshake_params, ptr %25, i32 0, i32 57
  %27 = call i32 @mbedtls_md_clone(ptr noundef %11, ptr noundef %26)
  store i32 %27, ptr %10, align 4, !tbaa !10
  %28 = load i32, ptr %10, align 4, !tbaa !10
  %29 = icmp ne i32 %28, 0
  br i1 %29, label %30, label %31

30:                                               ; preds = %22
  br label %40

31:                                               ; preds = %22
  %32 = load ptr, ptr %7, align 8, !tbaa !29
  %33 = call i32 @mbedtls_md_finish(ptr noundef %11, ptr noundef %32)
  store i32 %33, ptr %10, align 4, !tbaa !10
  %34 = icmp ne i32 %33, 0
  br i1 %34, label %35, label %38

35:                                               ; preds = %31
  %36 = load ptr, ptr %6, align 8, !tbaa !27
  %37 = load i32, ptr %10, align 4, !tbaa !10
  call void @mbedtls_debug_print_ret(ptr noundef %36, i32 noundef 1, ptr noundef @.str, i32 noundef 6489, ptr noundef @.str.88, i32 noundef %37)
  br label %40

38:                                               ; preds = %31
  %39 = load ptr, ptr %9, align 8, !tbaa !39
  store i64 32, ptr %39, align 8, !tbaa !8
  br label %40

40:                                               ; preds = %38, %35, %30, %21
  call void @mbedtls_md_free(ptr noundef %11)
  %41 = load i32, ptr %10, align 4, !tbaa !10
  store i32 %41, ptr %5, align 4
  store i32 1, ptr %12, align 4
  br label %42

42:                                               ; preds = %40, %15
  call void @llvm.lifetime.end.p0(i64 24, ptr %11) #11
  call void @llvm.lifetime.end.p0(i64 4, ptr %10) #11
  %43 = load i32, ptr %5, align 4
  ret i32 %43
}

; Function Attrs: nounwind uwtable
define internal i32 @ssl_get_handshake_transcript_sha384(ptr noundef %0, ptr noundef %1, i64 noundef %2, ptr noundef %3) #0 {
  %5 = alloca i32, align 4
  %6 = alloca ptr, align 8
  %7 = alloca ptr, align 8
  %8 = alloca i64, align 8
  %9 = alloca ptr, align 8
  %10 = alloca i32, align 4
  %11 = alloca %struct.mbedtls_md_context_t, align 8
  %12 = alloca i32, align 4
  store ptr %0, ptr %6, align 8, !tbaa !27
  store ptr %1, ptr %7, align 8, !tbaa !29
  store i64 %2, ptr %8, align 8, !tbaa !8
  store ptr %3, ptr %9, align 8, !tbaa !39
  call void @llvm.lifetime.start.p0(i64 4, ptr %10) #11
  call void @llvm.lifetime.start.p0(i64 24, ptr %11) #11
  %13 = load i64, ptr %8, align 8, !tbaa !8
  %14 = icmp ult i64 %13, 48
  br i1 %14, label %15, label %16

15:                                               ; preds = %4
  store i32 -27648, ptr %5, align 4
  store i32 1, ptr %12, align 4
  br label %42

16:                                               ; preds = %4
  call void @mbedtls_md_init(ptr noundef %11)
  %17 = call ptr @mbedtls_md_info_from_type(i32 noundef 10)
  %18 = call i32 @mbedtls_md_setup(ptr noundef %11, ptr noundef %17, i32 noundef 0)
  store i32 %18, ptr %10, align 4, !tbaa !10
  %19 = load i32, ptr %10, align 4, !tbaa !10
  %20 = icmp ne i32 %19, 0
  br i1 %20, label %21, label %22

21:                                               ; preds = %16
  br label %40

22:                                               ; preds = %16
  %23 = load ptr, ptr %6, align 8, !tbaa !27
  %24 = getelementptr inbounds nuw %struct.mbedtls_ssl_context, ptr %23, i32 0, i32 16
  %25 = load ptr, ptr %24, align 8, !tbaa !78
  %26 = getelementptr inbounds nuw %struct.mbedtls_ssl_handshake_params, ptr %25, i32 0, i32 58
  %27 = call i32 @mbedtls_md_clone(ptr noundef %11, ptr noundef %26)
  store i32 %27, ptr %10, align 4, !tbaa !10
  %28 = load i32, ptr %10, align 4, !tbaa !10
  %29 = icmp ne i32 %28, 0
  br i1 %29, label %30, label %31

30:                                               ; preds = %22
  br label %40

31:                                               ; preds = %22
  %32 = load ptr, ptr %7, align 8, !tbaa !29
  %33 = call i32 @mbedtls_md_finish(ptr noundef %11, ptr noundef %32)
  store i32 %33, ptr %10, align 4, !tbaa !10
  %34 = icmp ne i32 %33, 0
  br i1 %34, label %35, label %38

35:                                               ; preds = %31
  %36 = load ptr, ptr %6, align 8, !tbaa !27
  %37 = load i32, ptr %10, align 4, !tbaa !10
  call void @mbedtls_debug_print_ret(ptr noundef %36, i32 noundef 1, ptr noundef @.str, i32 noundef 6451, ptr noundef @.str.88, i32 noundef %37)
  br label %40

38:                                               ; preds = %31
  %39 = load ptr, ptr %9, align 8, !tbaa !39
  store i64 48, ptr %39, align 8, !tbaa !8
  br label %40

40:                                               ; preds = %38, %35, %30, %21
  call void @mbedtls_md_free(ptr noundef %11)
  %41 = load i32, ptr %10, align 4, !tbaa !10
  store i32 %41, ptr %5, align 4
  store i32 1, ptr %12, align 4
  br label %42

42:                                               ; preds = %40, %15
  call void @llvm.lifetime.end.p0(i64 24, ptr %11) #11
  call void @llvm.lifetime.end.p0(i64 4, ptr %10) #11
  %43 = load i32, ptr %5, align 4
  ret i32 %43
}

; Function Attrs: nounwind uwtable
define hidden i32 @mbedtls_ssl_get_handshake_transcript(ptr noundef %0, i32 noundef %1, ptr noundef %2, i64 noundef %3, ptr noundef %4) #0 {
  %6 = alloca i32, align 4
  %7 = alloca ptr, align 8
  %8 = alloca i32, align 4
  %9 = alloca ptr, align 8
  %10 = alloca i64, align 8
  %11 = alloca ptr, align 8
  store ptr %0, ptr %7, align 8, !tbaa !27
  store i32 %1, ptr %8, align 4, !tbaa !10
  store ptr %2, ptr %9, align 8, !tbaa !29
  store i64 %3, ptr %10, align 8, !tbaa !8
  store ptr %4, ptr %11, align 8, !tbaa !39
  %12 = load i32, ptr %8, align 4, !tbaa !10
  switch i32 %12, label %25 [
    i32 10, label %13
    i32 9, label %19
  ]

13:                                               ; preds = %5
  %14 = load ptr, ptr %7, align 8, !tbaa !27
  %15 = load ptr, ptr %9, align 8, !tbaa !29
  %16 = load i64, ptr %10, align 8, !tbaa !8
  %17 = load ptr, ptr %11, align 8, !tbaa !39
  %18 = call i32 @ssl_get_handshake_transcript_sha384(ptr noundef %14, ptr noundef %15, i64 noundef %16, ptr noundef %17)
  store i32 %18, ptr %6, align 4
  br label %27

19:                                               ; preds = %5
  %20 = load ptr, ptr %7, align 8, !tbaa !27
  %21 = load ptr, ptr %9, align 8, !tbaa !29
  %22 = load i64, ptr %10, align 8, !tbaa !8
  %23 = load ptr, ptr %11, align 8, !tbaa !39
  %24 = call i32 @ssl_get_handshake_transcript_sha256(ptr noundef %20, ptr noundef %21, i64 noundef %22, ptr noundef %23)
  store i32 %24, ptr %6, align 4
  br label %27

25:                                               ; preds = %5
  br label %26

26:                                               ; preds = %25
  store i32 -27648, ptr %6, align 4
  br label %27

27:                                               ; preds = %26, %19, %13
  %28 = load i32, ptr %6, align 4
  ret i32 %28
}