; Function Attrs: nounwind uwtable
define hidden i32 @mbedtls_ssl_get_handshake_transcript(ptr noundef %0, i32 noundef %1, ptr noundef %2, i64 noundef %3, ptr noundef writeonly captures(none) %4) local_unnamed_addr #1 {
  %6 = alloca %struct.mbedtls_md_context_t, align 8
  %7 = alloca %struct.mbedtls_md_context_t, align 8
  switch i32 %1, label %38 [
    i32 10, label %8
    i32 9, label %23
  ]

8:                                                ; preds = %5
  call void @llvm.lifetime.start.p0(i64 24, ptr nonnull %7) #26
  %9 = icmp ult i64 %3, 48
  br i1 %9, label %ssl_get_handshake_transcript_sha384.exit, label %10

10:                                               ; preds = %8
  call void @mbedtls_md_init(ptr noundef nonnull %7) #26
  %11 = call ptr @mbedtls_md_info_from_type(i32 noundef 10) #26
  %12 = call i32 @mbedtls_md_setup(ptr noundef nonnull %7, ptr noundef %11, i32 noundef 0) #26
  %.not.i = icmp eq i32 %12, 0
  br i1 %.not.i, label %13, label %22

13:                                               ; preds = %10
  %14 = getelementptr inbounds nuw i8, ptr %0, i64 112
  %15 = load ptr, ptr %14, align 8, !tbaa !70
  %16 = getelementptr inbounds nuw i8, ptr %15, i64 2008
  %17 = call i32 @mbedtls_md_clone(ptr noundef nonnull %7, ptr noundef nonnull %16) #26
  %.not13.i = icmp eq i32 %17, 0
  br i1 %.not13.i, label %18, label %22

18:                                               ; preds = %13
  %19 = call i32 @mbedtls_md_finish(ptr noundef nonnull %7, ptr noundef %2) #26
  %.not14.i = icmp eq i32 %19, 0
  br i1 %.not14.i, label %21, label %20

20:                                               ; preds = %18
  call void @mbedtls_debug_print_ret(ptr noundef nonnull %0, i32 noundef 1, ptr noundef nonnull @.str, i32 noundef 6451, ptr noundef nonnull @.str.88, i32 noundef %19) #26
  br label %22

21:                                               ; preds = %18
  store i64 48, ptr %4, align 8, !tbaa !33
  br label %22

22:                                               ; preds = %21, %20, %13, %10
  %.0.i = phi i32 [ %12, %10 ], [ %17, %13 ], [ %19, %20 ], [ 0, %21 ]
  call void @mbedtls_md_free(ptr noundef nonnull %7) #26
  br label %ssl_get_handshake_transcript_sha384.exit

ssl_get_handshake_transcript_sha384.exit:         ; preds = %8, %22
  %.09.i = phi i32 [ %.0.i, %22 ], [ -27648, %8 ]
  call void @llvm.lifetime.end.p0(i64 24, ptr nonnull %7) #26
  br label %38

23:                                               ; preds = %5
  call void @llvm.lifetime.start.p0(i64 24, ptr nonnull %6) #26
  %24 = icmp ult i64 %3, 32
  br i1 %24, label %ssl_get_handshake_transcript_sha256.exit, label %25

25:                                               ; preds = %23
  call void @mbedtls_md_init(ptr noundef nonnull %6) #26
  %26 = call ptr @mbedtls_md_info_from_type(i32 noundef 9) #26
  %27 = call i32 @mbedtls_md_setup(ptr noundef nonnull %6, ptr noundef %26, i32 noundef 0) #26
  %.not.i9 = icmp eq i32 %27, 0
  br i1 %.not.i9, label %28, label %37

28:                                               ; preds = %25
  %29 = getelementptr inbounds nuw i8, ptr %0, i64 112
  %30 = load ptr, ptr %29, align 8, !tbaa !70
  %31 = getelementptr inbounds nuw i8, ptr %30, i64 1984
  %32 = call i32 @mbedtls_md_clone(ptr noundef nonnull %6, ptr noundef nonnull %31) #26
  %.not13.i12 = icmp eq i32 %32, 0
  br i1 %.not13.i12, label %33, label %37

33:                                               ; preds = %28
  %34 = call i32 @mbedtls_md_finish(ptr noundef nonnull %6, ptr noundef %2) #26
  %.not14.i13 = icmp eq i32 %34, 0
  br i1 %.not14.i13, label %36, label %35

35:                                               ; preds = %33
  call void @mbedtls_debug_print_ret(ptr noundef nonnull %0, i32 noundef 1, ptr noundef nonnull @.str, i32 noundef 6489, ptr noundef nonnull @.str.88, i32 noundef %34) #26
  br label %37

36:                                               ; preds = %33
  store i64 32, ptr %4, align 8, !tbaa !33
  br label %37

37:                                               ; preds = %36, %35, %28, %25
  %.0.i10 = phi i32 [ %27, %25 ], [ %32, %28 ], [ %34, %35 ], [ 0, %36 ]
  call void @mbedtls_md_free(ptr noundef nonnull %6) #26
  br label %ssl_get_handshake_transcript_sha256.exit

ssl_get_handshake_transcript_sha256.exit:         ; preds = %23, %37
  %.09.i11 = phi i32 [ %.0.i10, %37 ], [ -27648, %23 ]
  call void @llvm.lifetime.end.p0(i64 24, ptr nonnull %6) #26
  br label %38

38:                                               ; preds = %5, %ssl_get_handshake_transcript_sha256.exit, %ssl_get_handshake_transcript_sha384.exit
  %.0 = phi i32 [ %.09.i11, %ssl_get_handshake_transcript_sha256.exit ], [ %.09.i, %ssl_get_handshake_transcript_sha384.exit ], [ -27648, %5 ]
  ret i32 %.0
}